; Function Attrs: null_pointer_is_valid sspstrong uwtable
define i32 @fvalue_gt(ptr noundef %0, ptr noundef %1) local_unnamed_addr #0 {
  %3 = alloca i32, align 4
  call void @llvm.lifetime.start.p0(i64 4, ptr nonnull %3) #11
  %4 = load ptr, ptr %0, align 8
  %5 = getelementptr inbounds nuw i8, ptr %4, i64 128
  %6 = load ptr, ptr %5, align 8
  %7 = call i32 %6(ptr noundef %0, ptr noundef %1, ptr noundef nonnull %3)
  %.not = icmp eq i32 %7, 0
  %8 = sub i32 0, %7
  %9 = load i32, ptr %3, align 4
  %10 = icmp sgt i32 %9, 0
  %11 = zext i1 %10 to i32
  %.0 = select i1 %.not, i32 %11, i32 %8
  call void @llvm.lifetime.end.p0(i64 4, ptr nonnull %3) #11
  ret i32 %.0
}